ccopy_reg
_reconstructor
p0
(ctorch.nn.modules.container
Sequential
p1
c__builtin__
object
p2
Ntp3
Rp4
(dp5
S'_backward_hooks'
p6
ccollections
OrderedDict
p7
((lp8
tp9
Rp10
sS'_forward_pre_hooks'
p11
g7
((lp12
tp13
Rp14
sS'_backend'
p15
ctorch.nn.backends.thnn
_get_thnn_function_backend
p16
(tRp17
sS'_forward_hooks'
p18
g7
((lp19
tp20
Rp21
sS'_modules'
p22
g7
((lp23
(lp24
S'0'
p25
ag0
(ctorch.nn.modules.linear
Linear
p26
g2
Ntp27
Rp28
(dp29
g6
g7
((lp30
tp31
Rp32
sg11
g7
((lp33
tp34
Rp35
sg15
g17
sS'in_features'
p36
L10L
sS'out_features'
p37
I32
sg18
g7
((lp38
tp39
Rp40
sg22
g7
((lp41
tp42
Rp43
sS'_parameters'
p44
g7
((lp45
(lp46
S'weight'
p47
accopy_reg
__newobj__
p48
(ctorch.nn.parameter
Parameter
p49
ctorch._utils
_rebuild_tensor
p50
(ctorch
FloatStorage
p51
((lp52
F0.12713930010795593
aF0.3367142379283905
aF-0.4247952997684479
aF-0.2379102259874344
aF-0.0941823422908783
aF0.127815842628479
aF-0.15739934146404266
aF0.19532223045825958
aF0.057582542300224304
aF-0.6938912272453308
aF-0.17026129364967346
aF-0.2991812527179718
aF-0.29671740531921387
aF-0.1574321985244751
aF0.2629340589046478
aF0.10422314703464508
aF0.2570219337940216
aF0.20286870002746582
aF-0.024038491770625114
aF-0.2830926179885864
aF-0.0877377912402153
aF0.6419323086738586
aF-0.32892316579818726
aF-0.022486329078674316
aF-0.23864462971687317
aF-0.2888509929180145
aF0.31732243299484253
aF0.26991114020347595
aF-0.4045388102531433
aF-0.5806518197059631
aF-0.04834408313035965
aF0.5028101801872253
aF-0.4029534161090851
aF-0.07575855404138565
aF-0.10706572979688644
aF-0.3596183657646179
aF-0.32534435391426086
aF0.17246529459953308
aF0.3728806972503662
aF-0.3181530237197876
aF0.01020041573792696
aF0.2786266505718231
aF-0.06504156440496445
aF-0.05118606612086296
aF0.18476474285125732
aF-0.02786867879331112
aF-0.11194097250699997
aF-0.0834842324256897
aF-0.10437985509634018
aF-0.0947420746088028
aF-0.4608757495880127
aF0.4431428611278534
aF-0.3692013621330261
aF0.0055644395761191845
aF0.06294712424278259
aF0.10467768460512161
aF0.24086306989192963
aF0.011865833774209023
aF-0.06101498380303383
aF0.11831744760274887
aF-0.12393613904714584
aF-0.009884653612971306
aF-0.02175254188477993
aF-0.399456262588501
aF0.234970822930336
aF-0.12484448403120041
aF-0.058128390461206436
aF0.37934568524360657
aF0.1427156925201416
aF-0.4718906581401825
aF0.3151460587978363
aF-0.004982670769095421
aF-0.11570297926664352
aF-0.07706104964017868
aF-0.010642746463418007
aF-0.39959797263145447
aF-0.27037185430526733
aF0.05102195218205452
aF-0.2816746234893799
aF-0.22681279480457306
aF-0.3177470266819
aF0.03327430412173271
aF0.06801038980484009
aF-0.3706240952014923
aF0.2598143219947815
aF0.034835558384656906
aF-0.14579755067825317
aF0.23453445732593536
aF0.2984040379524231
aF0.7821440100669861
aF0.12034449726343155
aF0.055477943271398544
aF-0.10347256809473038
aF0.4631105959415436
aF-0.24141216278076172
aF0.04684694856405258
aF0.1822475641965866
aF-0.08762578666210175
aF-0.08330056071281433
aF0.21858292818069458
aF-0.11072397232055664
aF-0.09445588290691376
aF0.4793933033943176
aF0.5157590508460999
aF-0.11944563686847687
aF-0.19339610636234283
aF-0.02663927711546421
aF-0.029292579740285873
aF0.16695527732372284
aF-0.19828425347805023
aF0.2677711546421051
aF0.6481426954269409
aF-0.26764553785324097
aF-0.045136839151382446
aF0.22575783729553223
aF-0.006984014995396137
aF0.06307327002286911
aF-0.022686460986733437
aF0.13879619538784027
aF-0.5889010429382324
aF0.32346463203430176
aF0.3115714490413666
aF-0.22168870270252228
aF-0.025569429621100426
aF-0.3425220251083374
aF-0.4300246238708496
aF-0.05258075147867203
aF-0.1855892539024353
aF0.25814366340637207
aF-0.2691328823566437
aF-0.16894790530204773
aF-0.4129321575164795
aF-0.1869051605463028
aF-0.052448906004428864
aF-0.05288753658533096
aF0.2171768993139267
aF-0.384834885597229
aF-0.13227906823158264
aF0.7305809855461121
aF0.8711790442466736
aF0.09869924932718277
aF-0.05785294622182846
aF0.1683134287595749
aF-0.19816039502620697
aF-0.05683741346001625
aF0.22327226400375366
aF-0.4099551737308502
aF-0.09014077484607697
aF0.5544853210449219
aF0.5418059825897217
aF0.1318819671869278
aF0.004023190587759018
aF0.18413405120372772
aF-0.1856008917093277
aF-0.10382337868213654
aF-0.16683535277843475
aF0.08296851068735123
aF0.09478319436311722
aF0.05509229004383087
aF-0.18221908807754517
aF-0.22038519382476807
aF0.016261518001556396
aF0.7473655939102173
aF0.7554128766059875
aF-0.366809219121933
aF-0.2332274168729782
aF-0.4000835120677948
aF-0.11918378621339798
aF-0.19155122339725494
aF0.07045778632164001
aF0.33315953612327576
aF-0.3450646698474884
aF-0.30463942885398865
aF0.046998851001262665
aF0.43511369824409485
aF0.16797764599323273
aF0.3805778920650482
aF-0.03122880309820175
aF-0.0783286988735199
aF-0.169111430644989
aF0.42738446593284607
aF0.2816636562347412
aF0.05231231078505516
aF-0.17162887752056122
aF-0.12839864194393158
aF0.12859348952770233
aF0.2763148546218872
aF0.08220899850130081
aF-0.2893775403499603
aF-0.19411303102970123
aF0.19295820593833923
aF-0.17090357840061188
aF-0.2558273375034332
aF-0.41636648774147034
aF-0.1661115437746048
aF0.017076823860406876
aF0.12080815434455872
aF-0.3574911653995514
aF0.10593690723180771
aF-0.2902129292488098
aF0.15889695286750793
aF-0.11883723735809326
aF-0.005308936350047588
aF-0.020942896604537964
aF-0.38276857137680054
aF-0.21853016316890717
aF-0.04187904670834541
aF-0.23915331065654755
aF0.034343525767326355
aF-0.05612718313932419
aF-0.00722378259524703
aF-0.025400390848517418
aF-0.0776018425822258
aF-0.1570708155632019
aF-0.027290184050798416
aF-0.38412579894065857
aF-0.17425712943077087
aF-0.20305941998958588
aF0.07863149791955948
aF0.10075604915618896
aF0.09693185985088348
aF-0.15628275275230408
aF-0.39376217126846313
aF-0.04811016842722893
aF-0.45194968581199646
aF-0.10081183165311813
aF0.4101133346557617
aF0.1558637171983719
aF0.24409665167331696
aF-0.4271771013736725
aF-0.29266610741615295
aF-0.004926579538732767
aF-0.3292764723300934
aF-0.11242655664682388
aF0.10004328191280365
aF0.39967915415763855
aF0.4265722334384918
aF0.15091511607170105
aF0.2193896472454071
aF-0.6197666525840759
aF0.07441773265600204
aF-0.32144519686698914
aF-0.3023712933063507
aF-0.0018027258338406682
aF0.24741169810295105
aF-0.19668330252170563
aF-0.062196336686611176
aF0.013297328725457191
aF0.15080010890960693
aF-0.7692554593086243
aF-0.3097079396247864
aF0.3648882508277893
aF-0.15028230845928192
aF-0.033475447446107864
aF-0.10686033964157104
aF-0.16374577581882477
aF0.38941246271133423
aF0.2716914415359497
aF0.3062894642353058
aF0.15988020598888397
aF-0.20588015019893646
aF0.358681857585907
aF-0.18179084360599518
aF-0.3263572156429291
aF0.25370651483535767
aF0.08438058942556381
aF0.34655746817588806
aF0.4554137587547302
aF0.14923547208309174
aF-0.39559775590896606
aF-0.06552422791719437
aF-0.3571813404560089
aF0.4645528793334961
aF0.5107201337814331
aF0.29557400941848755
aF0.06792525202035904
aF0.7955619096755981
aF0.3556157648563385
aF-0.10876715183258057
aF-0.4228743612766266
aF-0.6112159490585327
aF0.579842746257782
aF-0.2919992208480835
aF-0.2808115482330322
aF-0.021831180900335312
aF-0.21830134093761444
aF0.3777258098125458
aF0.29020074009895325
aF0.3767496347427368
aF0.613066554069519
aF0.41390639543533325
aF0.07106944918632507
aF-0.19030295312404633
aF0.03646281734108925
aF-0.06499440968036652
aF0.08941278606653214
aF0.1801462322473526
aF-0.08313643932342529
aF-0.02704812027513981
aF-0.7769744396209717
aF-0.04060421139001846
aF0.11149467527866364
aF0.811883807182312
aF0.8066576719284058
aF-0.1111174076795578
aF-0.27623581886291504
aF-0.29091179370880127
aF-0.5663565397262573
aF-0.4616910517215729
aF0.5911749005317688
aF-0.08899164944887161
aF-0.05315385386347771
aF0.43891218304634094
aF0.1454121321439743
aF0.11275468021631241
aF0.1738080233335495
aF0.3425538241863251
aF-0.04549531638622284
aF0.1313251107931137
aF-0.586077868938446
atp53
Rp54
I0
(L32L
L10L
tp55
(L10L
L1L
tp56
tp57
Rp58
tp59
Rp60
(I01
I00
Ntp61
baa(lp62
S'bias'
p63
ag48
(g49
g50
(g51
((lp64
F0.4384777545928955
aF0.07838404178619385
aF0.4784887731075287
aF0.4412567913532257
aF-0.3854873776435852
aF-0.07983344793319702
aF0.5667480826377869
aF0.1365451067686081
aF-0.12237507849931717
aF-0.3320869505405426
aF-0.3475598692893982
aF0.43296271562576294
aF0.1050717830657959
aF-0.7657637000083923
aF-0.9176200032234192
aF-0.023010598495602608
aF-0.19053182005882263
aF0.28725895285606384
aF0.60773104429245
aF-0.054613880813121796
aF-0.1694212108850479
aF-0.27435657382011414
aF0.4545302987098694
aF0.22516781091690063
aF0.5440956354141235
aF0.5656806230545044
aF0.18441057205200195
aF-0.05386916548013687
aF0.20075009763240814
aF0.589699923992157
aF0.0816357210278511
aF-0.3741178810596466
atp65
Rp66
I0
(L32L
tp67
(L1L
tp68
tp69
Rp70
tp71
Rp72
(I01
I00
Ntp73
baatp74
Rp75
sS'_buffers'
p76
g7
((lp77
tp78
Rp79
sS'training'
p80
I01
sbaa(lp81
S'1'
p82
ag0
(ctorch.nn.modules.activation
ReLU
p83
g2
Ntp84
Rp85
(dp86
g6
g7
((lp87
tp88
Rp89
sg11
g7
((lp90
tp91
Rp92
sg15
g17
sg18
g7
((lp93
tp94
Rp95
sg22
g7
((lp96
tp97
Rp98
sS'inplace'
p99
I00
sg44
g7
((lp100
tp101
Rp102
sS'threshold'
p103
I0
sS'value'
p104
I0
sg76
g7
((lp105
tp106
Rp107
sg80
I01
sbaa(lp108
S'2'
p109
ag0
(g26
g2
Ntp110
Rp111
(dp112
g6
g7
((lp113
tp114
Rp115
sg11
g7
((lp116
tp117
Rp118
sg15
g17
sg36
I32
sg37
L1L
sg18
g7
((lp119
tp120
Rp121
sg22
g7
((lp122
tp123
Rp124
sg44
g7
((lp125
(lp126
g47
ag48
(g49
g50
(g51
((lp127
F-0.22371695935726166
aF-0.150052011013031
aF-0.3000902235507965
aF-0.3370732069015503
aF0.014722922816872597
aF-0.11615397036075592
aF-0.44433170557022095
aF-0.11616936326026917
aF-0.3488483130931854
aF0.009397909976541996
aF0.4861754775047302
aF-0.43109506368637085
aF-0.261008083820343
aF-0.9063481688499451
aF-0.7401189208030701
aF-0.09244222939014435
aF0.5522336959838867
aF-0.2867737412452698
aF-0.2469942420721054
aF-0.2335483729839325
aF0.03498392179608345
aF0.1260518729686737
aF-0.3926006257534027
aF-0.1790006011724472
aF-0.312279611825943
aF-0.24190574884414673
aF-0.19931375980377197
aF0.47388091683387756
aF-0.20832392573356628
aF-0.26061221957206726
aF0.5797477960586548
aF0.2658875584602356
atp128
Rp129
I0
(L1L
L32L
tp130
(L32L
L1L
tp131
tp132
Rp133
tp134
Rp135
(I01
I00
Ntp136
baa(lp137
g63
ag48
(g49
g50
(g51
((lp138
F-0.11929664015769958
atp139
Rp140
I0
(L1L
tp141
(L1L
tp142
tp143
Rp144
tp145
Rp146
(I01
I00
Ntp147
baatp148
Rp149
sg76
g7
((lp150
tp151
Rp152
sg80
I01
sbaa(lp153
S'3'
p154
ag0
(ctorch.nn.modules.activation
Sigmoid
p155
g2
Ntp156
Rp157
(dp158
g6
g7
((lp159
tp160
Rp161
sg11
g7
((lp162
tp163
Rp164
sg15
g17
sg18
g7
((lp165
tp166
Rp167
sg22
g7
((lp168
tp169
Rp170
sg44
g7
((lp171
tp172
Rp173
sg76
g7
((lp174
tp175
Rp176
sg80
I01
sbaatp177
Rp178
sg44
g7
((lp179
tp180
Rp181
sg76
g7
((lp182
tp183
Rp184
sg80
I01
sb.